target datalayout = "e-m:e-p270:32:32-p271:32:32-p272:64:64-i64:64-i128:128-f80:128-n8:16:32:64-S128"
target triple = "x86_64-pc-linux-gnu"

%"class.net::QuicTime::Delta" = type { %"class.base::TimeDelta", i64 }
%"class.base::TimeDelta" = type { i64 }
%"class.net::QuicTime" = type { i64 }
%"class.net::RttStats" = type { %"class.net::QuicTime::Delta", %"class.net::QuicTime::Delta", %"class.net::QuicTime::Delta", %"class.net::QuicTime::Delta", %"class.net::QuicTime::Delta", i64, %"class.net::QuicTime::Delta", %"class.net::QuicTime", i32, %"class.net::WindowedFilter" }
%"class.net::WindowedFilter" = type { %"class.net::QuicTime::Delta", %"class.net::QuicTime::Delta", [3 x %"struct.net::WindowedFilter<net::QuicTime::Delta, net::MinFilter<net::QuicTime::Delta>, net::QuicTime, net::QuicTime::Delta>::Sample"] }
%"struct.net::WindowedFilter<net::QuicTime::Delta, net::MinFilter<net::QuicTime::Delta>, net::QuicTime, net::QuicTime::Delta>::Sample" = type { %"class.net::QuicTime::Delta", %"class.net::QuicTime" }

; Function Attrs: mustprogress nounwind uwtable
define linkonce_odr void @_ZN4base9TimeDeltaC2Ev(ptr noundef nonnull align 8 dereferenceable(8) %0) unnamed_addr #6 comdat align 2 {
  %2 = alloca ptr, align 8
  store ptr %0, ptr %2, align 8, !tbaa !38
  %3 = load ptr, ptr %2, align 8
  %4 = getelementptr inbounds nuw %"class.base::TimeDelta", ptr %3, i32 0, i32 0
  store i64 0, ptr %4, align 8, !tbaa !40
  ret void
}

; Function Attrs: mustprogress nounwind uwtable
define linkonce_odr void @_ZN3net14WindowedFilterINS_8QuicTime5DeltaENS_9MinFilterIS2_EES1_S2_E6SampleC2ES2_S1_(ptr noundef nonnull align 8 dereferenceable(24) %0, i64 %1, i64 %2, i64 %3) unnamed_addr #6 comdat align 2 {
  %5 = alloca %"class.net::QuicTime::Delta", align 8
  %6 = alloca %"class.net::QuicTime", align 8
  %7 = alloca ptr, align 8
  %8 = getelementptr inbounds nuw { i64, i64 }, ptr %5, i32 0, i32 0
  store i64 %1, ptr %8, align 8
  %9 = getelementptr inbounds nuw { i64, i64 }, ptr %5, i32 0, i32 1
  store i64 %2, ptr %9, align 8
  %10 = getelementptr inbounds nuw %"class.net::QuicTime", ptr %6, i32 0, i32 0
  store i64 %3, ptr %10, align 8
  store ptr %0, ptr %7, align 8, !tbaa !56
  %11 = load ptr, ptr %7, align 8
  %12 = getelementptr inbounds nuw %"struct.net::WindowedFilter<net::QuicTime::Delta, net::MinFilter<net::QuicTime::Delta>, net::QuicTime, net::QuicTime::Delta>::Sample", ptr %11, i32 0, i32 0
  call void @llvm.memcpy.p0.p0.i64(ptr align 8 %12, ptr align 8 %5, i64 16, i1 false), !tbaa.struct !20
  %13 = getelementptr inbounds nuw %"struct.net::WindowedFilter<net::QuicTime::Delta, net::MinFilter<net::QuicTime::Delta>, net::QuicTime, net::QuicTime::Delta>::Sample", ptr %11, i32 0, i32 1
  call void @llvm.memcpy.p0.p0.i64(ptr align 8 %13, ptr align 8 %6, i64 8, i1 false), !tbaa.struct !21
  ret void
}

; Function Attrs: inlinehint mustprogress nounwind uwtable
define linkonce_odr void @_ZN3net8QuicTimeC2El(ptr noundef nonnull align 8 dereferenceable(8) %0, i64 noundef %1) unnamed_addr #4 comdat align 2 {
  %3 = alloca ptr, align 8
  %4 = alloca i64, align 8
  store ptr %0, ptr %3, align 8, !tbaa !41
  store i64 %1, ptr %4, align 8, !tbaa !17
  %5 = load ptr, ptr %3, align 8
  %6 = getelementptr inbounds nuw %"class.net::QuicTime", ptr %5, i32 0, i32 0
  %7 = load i64, ptr %4, align 8, !tbaa !17
  store i64 %7, ptr %6, align 8, !tbaa !43
  ret void
}

; Function Attrs: inlinehint mustprogress uwtable
define linkonce_odr void @_ZN3net8QuicTime5DeltaC2El(ptr noundef nonnull align 8 dereferenceable(16) %0, i64 noundef %1) unnamed_addr #1 comdat align 2 {
  %3 = alloca ptr, align 8
  %4 = alloca i64, align 8
  store ptr %0, ptr %3, align 8, !tbaa !23
  store i64 %1, ptr %4, align 8, !tbaa !17
  %5 = load ptr, ptr %3, align 8
  %6 = getelementptr inbounds nuw %"class.net::QuicTime::Delta", ptr %5, i32 0, i32 0
  call void @_ZN4base9TimeDeltaC2Ev(ptr noundef nonnull align 8 dereferenceable(8) %6)
  %7 = getelementptr inbounds nuw %"class.net::QuicTime::Delta", ptr %5, i32 0, i32 1
  %8 = load i64, ptr %4, align 8, !tbaa !17
  store i64 %8, ptr %7, align 8, !tbaa !25
  ret void
}

; Function Attrs: mustprogress uwtable
define linkonce_odr void @_ZN3net14WindowedFilterINS_8QuicTime5DeltaENS_9MinFilterIS2_EES1_S2_EC2ES2_S2_S1_(ptr noundef nonnull align 8 dereferenceable(104) %0, i64 %1, i64 %2, i64 %3, i64 %4, i64 %5) unnamed_addr #0 comdat align 2 {
  %7 = alloca %"class.net::QuicTime::Delta", align 8
  %8 = alloca %"class.net::QuicTime::Delta", align 8
  %9 = alloca %"class.net::QuicTime", align 8
  %10 = alloca ptr, align 8
  %11 = alloca %"class.net::QuicTime::Delta", align 8
  %12 = alloca %"class.net::QuicTime", align 8
  %13 = alloca %"class.net::QuicTime::Delta", align 8
  %14 = alloca %"class.net::QuicTime", align 8
  %15 = alloca %"class.net::QuicTime::Delta", align 8
  %16 = alloca %"class.net::QuicTime", align 8
  %17 = getelementptr inbounds nuw { i64, i64 }, ptr %7, i32 0, i32 0
  store i64 %1, ptr %17, align 8
  %18 = getelementptr inbounds nuw { i64, i64 }, ptr %7, i32 0, i32 1
  store i64 %2, ptr %18, align 8
  %19 = getelementptr inbounds nuw { i64, i64 }, ptr %8, i32 0, i32 0
  store i64 %3, ptr %19, align 8
  %20 = getelementptr inbounds nuw { i64, i64 }, ptr %8, i32 0, i32 1
  store i64 %4, ptr %20, align 8
  %21 = getelementptr inbounds nuw %"class.net::QuicTime", ptr %9, i32 0, i32 0
  store i64 %5, ptr %21, align 8
  store ptr %0, ptr %10, align 8, !tbaa !18
  %22 = load ptr, ptr %10, align 8
  %23 = getelementptr inbounds nuw %"class.net::WindowedFilter", ptr %22, i32 0, i32 0
  call void @llvm.memcpy.p0.p0.i64(ptr align 8 %23, ptr align 8 %7, i64 16, i1 false), !tbaa.struct !20
  %24 = getelementptr inbounds nuw %"class.net::WindowedFilter", ptr %22, i32 0, i32 1
  call void @llvm.memcpy.p0.p0.i64(ptr align 8 %24, ptr align 8 %8, i64 16, i1 false), !tbaa.struct !20
  %25 = getelementptr inbounds nuw %"class.net::WindowedFilter", ptr %22, i32 0, i32 2
  %26 = getelementptr inbounds nuw %"class.net::WindowedFilter", ptr %22, i32 0, i32 1
  call void @llvm.memcpy.p0.p0.i64(ptr align 8 %11, ptr align 8 %26, i64 16, i1 false), !tbaa.struct !20
  call void @llvm.memcpy.p0.p0.i64(ptr align 8 %12, ptr align 8 %9, i64 8, i1 false), !tbaa.struct !21
  %27 = getelementptr inbounds nuw { i64, i64 }, ptr %11, i32 0, i32 0
  %28 = load i64, ptr %27, align 8
  %29 = getelementptr inbounds nuw { i64, i64 }, ptr %11, i32 0, i32 1
  %30 = load i64, ptr %29, align 8
  %31 = getelementptr inbounds nuw %"class.net::QuicTime", ptr %12, i32 0, i32 0
  %32 = load i64, ptr %31, align 8
  call void @_ZN3net14WindowedFilterINS_8QuicTime5DeltaENS_9MinFilterIS2_EES1_S2_E6SampleC2ES2_S1_(ptr noundef nonnull align 8 dereferenceable(24) %25, i64 %28, i64 %30, i64 %32)
  %33 = getelementptr inbounds %"struct.net::WindowedFilter<net::QuicTime::Delta, net::MinFilter<net::QuicTime::Delta>, net::QuicTime, net::QuicTime::Delta>::Sample", ptr %25, i64 1
  %34 = getelementptr inbounds nuw %"class.net::WindowedFilter", ptr %22, i32 0, i32 1
  call void @llvm.memcpy.p0.p0.i64(ptr align 8 %13, ptr align 8 %34, i64 16, i1 false), !tbaa.struct !20
  call void @llvm.memcpy.p0.p0.i64(ptr align 8 %14, ptr align 8 %9, i64 8, i1 false), !tbaa.struct !21
  %35 = getelementptr inbounds nuw { i64, i64 }, ptr %13, i32 0, i32 0
  %36 = load i64, ptr %35, align 8
  %37 = getelementptr inbounds nuw { i64, i64 }, ptr %13, i32 0, i32 1
  %38 = load i64, ptr %37, align 8
  %39 = getelementptr inbounds nuw %"class.net::QuicTime", ptr %14, i32 0, i32 0
  %40 = load i64, ptr %39, align 8
  call void @_ZN3net14WindowedFilterINS_8QuicTime5DeltaENS_9MinFilterIS2_EES1_S2_E6SampleC2ES2_S1_(ptr noundef nonnull align 8 dereferenceable(24) %33, i64 %36, i64 %38, i64 %40)
  %41 = getelementptr inbounds %"struct.net::WindowedFilter<net::QuicTime::Delta, net::MinFilter<net::QuicTime::Delta>, net::QuicTime, net::QuicTime::Delta>::Sample", ptr %25, i64 2
  %42 = getelementptr inbounds nuw %"class.net::WindowedFilter", ptr %22, i32 0, i32 1
  call void @llvm.memcpy.p0.p0.i64(ptr align 8 %15, ptr align 8 %42, i64 16, i1 false), !tbaa.struct !20
  call void @llvm.memcpy.p0.p0.i64(ptr align 8 %16, ptr align 8 %9, i64 8, i1 false), !tbaa.struct !21
  %43 = getelementptr inbounds nuw { i64, i64 }, ptr %15, i32 0, i32 0
  %44 = load i64, ptr %43, align 8
  %45 = getelementptr inbounds nuw { i64, i64 }, ptr %15, i32 0, i32 1
  %46 = load i64, ptr %45, align 8
  %47 = getelementptr inbounds nuw %"class.net::QuicTime", ptr %16, i32 0, i32 0
  %48 = load i64, ptr %47, align 8
  call void @_ZN3net14WindowedFilterINS_8QuicTime5DeltaENS_9MinFilterIS2_EES1_S2_E6SampleC2ES2_S1_(ptr noundef nonnull align 8 dereferenceable(24) %41, i64 %44, i64 %46, i64 %48)
  ret void
}

; Function Attrs: inlinehint mustprogress uwtable
define linkonce_odr { i64, i64 } @_ZN3net8QuicTime5Delta16FromMillisecondsEl(i64 noundef %0) #1 comdat align 2 {
  %2 = alloca %"class.net::QuicTime::Delta", align 8
  %3 = alloca i64, align 8
  store i64 %0, ptr %3, align 8, !tbaa !17
  %4 = load i64, ptr %3, align 8, !tbaa !17
  %5 = mul nsw i64 %4, 1000
  call void @_ZN3net8QuicTime5DeltaC2El(ptr noundef nonnull align 8 dereferenceable(16) %2, i64 noundef %5)
  %6 = load { i64, i64 }, ptr %2, align 8
  ret { i64, i64 } %6
}

; Function Attrs: inlinehint mustprogress uwtable
define linkonce_odr i64 @_ZN3net8QuicTime4ZeroEv() #1 comdat align 2 {
  %1 = alloca %"class.net::QuicTime", align 8
  call void @_ZN3net8QuicTimeC2El(ptr noundef nonnull align 8 dereferenceable(8) %1, i64 noundef 0)
  %2 = getelementptr inbounds nuw %"class.net::QuicTime", ptr %1, i32 0, i32 0
  %3 = load i64, ptr %2, align 8
  ret i64 %3
}

; Function Attrs: inlinehint mustprogress uwtable
define linkonce_odr { i64, i64 } @_ZN3net8QuicTime5Delta4ZeroEv() #1 comdat align 2 {
  %1 = alloca %"class.net::QuicTime::Delta", align 8
  call void @_ZN3net8QuicTime5DeltaC2El(ptr noundef nonnull align 8 dereferenceable(16) %1, i64 noundef 0)
  %2 = load { i64, i64 }, ptr %1, align 8
  ret { i64, i64 } %2
}

; Function Attrs: mustprogress uwtable
define void @_ZN3net8RttStatsC2Ev(ptr noundef nonnull align 8 dereferenceable(224) %0) unnamed_addr #0 align 2 {
  %2 = alloca ptr, align 8
  %3 = alloca %"class.net::QuicTime::Delta", align 8
  %4 = alloca %"class.net::QuicTime::Delta", align 8
  %5 = alloca %"class.net::QuicTime", align 8
  store ptr %0, ptr %2, align 8, !tbaa !3
  %6 = load ptr, ptr %2, align 8
  %7 = getelementptr inbounds nuw %"class.net::RttStats", ptr %6, i32 0, i32 0
  %8 = call { i64, i64 } @_ZN3net8QuicTime5Delta4ZeroEv()
  %9 = getelementptr inbounds nuw { i64, i64 }, ptr %7, i32 0, i32 0
  %10 = extractvalue { i64, i64 } %8, 0
  store i64 %10, ptr %9, align 8
  %11 = getelementptr inbounds nuw { i64, i64 }, ptr %7, i32 0, i32 1
  %12 = extractvalue { i64, i64 } %8, 1
  store i64 %12, ptr %11, align 8
  %13 = getelementptr inbounds nuw %"class.net::RttStats", ptr %6, i32 0, i32 1
  %14 = call { i64, i64 } @_ZN3net8QuicTime5Delta4ZeroEv()
  %15 = getelementptr inbounds nuw { i64, i64 }, ptr %13, i32 0, i32 0
  %16 = extractvalue { i64, i64 } %14, 0
  store i64 %16, ptr %15, align 8
  %17 = getelementptr inbounds nuw { i64, i64 }, ptr %13, i32 0, i32 1
  %18 = extractvalue { i64, i64 } %14, 1
  store i64 %18, ptr %17, align 8
  %19 = getelementptr inbounds nuw %"class.net::RttStats", ptr %6, i32 0, i32 2
  %20 = call { i64, i64 } @_ZN3net8QuicTime5Delta4ZeroEv()
  %21 = getelementptr inbounds nuw { i64, i64 }, ptr %19, i32 0, i32 0
  %22 = extractvalue { i64, i64 } %20, 0
  store i64 %22, ptr %21, align 8
  %23 = getelementptr inbounds nuw { i64, i64 }, ptr %19, i32 0, i32 1
  %24 = extractvalue { i64, i64 } %20, 1
  store i64 %24, ptr %23, align 8
  %25 = getelementptr inbounds nuw %"class.net::RttStats", ptr %6, i32 0, i32 3
  %26 = call { i64, i64 } @_ZN3net8QuicTime5Delta4ZeroEv()
  %27 = getelementptr inbounds nuw { i64, i64 }, ptr %25, i32 0, i32 0
  %28 = extractvalue { i64, i64 } %26, 0
  store i64 %28, ptr %27, align 8
  %29 = getelementptr inbounds nuw { i64, i64 }, ptr %25, i32 0, i32 1
  %30 = extractvalue { i64, i64 } %26, 1
  store i64 %30, ptr %29, align 8
  %31 = getelementptr inbounds nuw %"class.net::RttStats", ptr %6, i32 0, i32 4
  %32 = call { i64, i64 } @_ZN3net8QuicTime5Delta4ZeroEv()
  %33 = getelementptr inbounds nuw { i64, i64 }, ptr %31, i32 0, i32 0
  %34 = extractvalue { i64, i64 } %32, 0
  store i64 %34, ptr %33, align 8
  %35 = getelementptr inbounds nuw { i64, i64 }, ptr %31, i32 0, i32 1
  %36 = extractvalue { i64, i64 } %32, 1
  store i64 %36, ptr %35, align 8
  %37 = getelementptr inbounds nuw %"class.net::RttStats", ptr %6, i32 0, i32 5
  store i64 100000, ptr %37, align 8, !tbaa !8
  %38 = getelementptr inbounds nuw %"class.net::RttStats", ptr %6, i32 0, i32 6
  %39 = call { i64, i64 } @_ZN3net8QuicTime5Delta4ZeroEv()
  %40 = getelementptr inbounds nuw { i64, i64 }, ptr %38, i32 0, i32 0
  %41 = extractvalue { i64, i64 } %39, 0
  store i64 %41, ptr %40, align 8
  %42 = getelementptr inbounds nuw { i64, i64 }, ptr %38, i32 0, i32 1
  %43 = extractvalue { i64, i64 } %39, 1
  store i64 %43, ptr %42, align 8
  %44 = getelementptr inbounds nuw %"class.net::RttStats", ptr %6, i32 0, i32 7
  %45 = call i64 @_ZN3net8QuicTime4ZeroEv()
  %46 = getelementptr inbounds nuw %"class.net::QuicTime", ptr %44, i32 0, i32 0
  store i64 %45, ptr %46, align 8
  %47 = getelementptr inbounds nuw %"class.net::RttStats", ptr %6, i32 0, i32 8
  store i32 0, ptr %47, align 8, !tbaa !16
  %48 = getelementptr inbounds nuw %"class.net::RttStats", ptr %6, i32 0, i32 9
  %49 = call { i64, i64 } @_ZN3net8QuicTime5Delta16FromMillisecondsEl(i64 noundef 10000)
  %50 = getelementptr inbounds nuw { i64, i64 }, ptr %3, i32 0, i32 0
  %51 = extractvalue { i64, i64 } %49, 0
  store i64 %51, ptr %50, align 8
  %52 = getelementptr inbounds nuw { i64, i64 }, ptr %3, i32 0, i32 1
  %53 = extractvalue { i64, i64 } %49, 1
  store i64 %53, ptr %52, align 8
  %54 = call { i64, i64 } @_ZN3net8QuicTime5Delta4ZeroEv()
  %55 = getelementptr inbounds nuw { i64, i64 }, ptr %4, i32 0, i32 0
  %56 = extractvalue { i64, i64 } %54, 0
  store i64 %56, ptr %55, align 8
  %57 = getelementptr inbounds nuw { i64, i64 }, ptr %4, i32 0, i32 1
  %58 = extractvalue { i64, i64 } %54, 1
  store i64 %58, ptr %57, align 8
  %59 = call i64 @_ZN3net8QuicTime4ZeroEv()
  %60 = getelementptr inbounds nuw %"class.net::QuicTime", ptr %5, i32 0, i32 0
  store i64 %59, ptr %60, align 8
  %61 = getelementptr inbounds nuw { i64, i64 }, ptr %3, i32 0, i32 0
  %62 = load i64, ptr %61, align 8
  %63 = getelementptr inbounds nuw { i64, i64 }, ptr %3, i32 0, i32 1
  %64 = load i64, ptr %63, align 8
  %65 = getelementptr inbounds nuw { i64, i64 }, ptr %4, i32 0, i32 0
  %66 = load i64, ptr %65, align 8
  %67 = getelementptr inbounds nuw { i64, i64 }, ptr %4, i32 0, i32 1
  %68 = load i64, ptr %67, align 8
  %69 = getelementptr inbounds nuw %"class.net::QuicTime", ptr %5, i32 0, i32 0
  %70 = load i64, ptr %69, align 8
  call void @_ZN3net14WindowedFilterINS_8QuicTime5DeltaENS_9MinFilterIS2_EES1_S2_EC2ES2_S2_S1_(ptr noundef nonnull align 8 dereferenceable(104) %48, i64 %62, i64 %64, i64 %66, i64 %68, i64 %70)
  ret void
}