; Function Attrs: mustprogress nofree norecurse nosync nounwind willreturn memory(argmem: write) uwtable
define void @_ZN3net8RttStatsC2Ev(ptr noundef nonnull writeonly align 8 captures(none) dereferenceable(224) initializes((0, 116), (120, 224)) %0) unnamed_addr #0 align 2 {
  %2 = getelementptr inbounds nuw i8, ptr %0, i64 80
  tail call void @llvm.memset.p0.i64(ptr noundef nonnull align 8 dereferenceable(80) %0, i8 0, i64 80, i1 false)
  store i64 100000, ptr %2, align 8, !tbaa !3
  %3 = getelementptr inbounds nuw i8, ptr %0, i64 88
  %4 = getelementptr inbounds nuw i8, ptr %0, i64 120
  store i64 0, ptr %4, align 8, !tbaa !13
  %.sroa.214.0..sroa_idx.i = getelementptr inbounds nuw i8, ptr %0, i64 128
  tail call void @llvm.memset.p0.i64(ptr noundef nonnull align 8 dereferenceable(28) %3, i8 0, i64 28, i1 false)
  store i64 10000000, ptr %.sroa.214.0..sroa_idx.i, align 8, !tbaa !13
  %5 = getelementptr inbounds nuw i8, ptr %0, i64 136
  tail call void @llvm.memset.p0.i64(ptr noundef nonnull align 8 dereferenceable(88) %5, i8 0, i64 88, i1 false)
  ret void
}